; Function Attrs: mustprogress uwtable
define hidden void @_ZN6Assimp19Discreet3DSImporter9SkipChunkEv(ptr nocapture noundef nonnull readonly align 8 dereferenceable(162) %this) local_unnamed_addr #2 align 2 personality ptr @__gxx_personality_v0 {
entry:
  %psChunk = alloca %"struct.Assimp::D3DS::Discreet3DS::Chunk", align 1
  call void @_ZN6Assimp19Discreet3DSImporter9ReadChunkEPNS_4D3DS11Discreet3DS5ChunkE(ptr noundef nonnull align 8 dereferenceable(162) %this, ptr noundef nonnull %psChunk)
  %stream = getelementptr inbounds i8, ptr %this, i64 72
  %0 = load ptr, ptr %stream, align 8
  %Size = getelementptr inbounds i8, ptr %psChunk, i64 2
  %1 = load i32, ptr %Size, align 1
  %conv = zext i32 %1 to i64
  %mCurrent.i = getelementptr inbounds i8, ptr %0, i64 24
  %2 = load ptr, ptr %mCurrent.i, align 8
  %3 = getelementptr i8, ptr %2, i64 %conv
  %add.ptr.i = getelementptr i8, ptr %3, i64 -6
  store ptr %add.ptr.i, ptr %mCurrent.i, align 8
  %mLimit.i = getelementptr inbounds i8, ptr %0, i64 40
  %4 = load ptr, ptr %mLimit.i, align 8
  %cmp.i = icmp ugt ptr %add.ptr.i, %4
  br i1 %cmp.i, label %if.then.i, label %_ZN6Assimp12StreamReaderILb0ELb0EE6IncPtrEl.exit

if.then.i:                                        ; preds = %entry
  %exception.i = tail call ptr @__cxa_allocate_exception(i64 16) #22
  invoke void @_ZN17DeadlyImportErrorC2EPKc(ptr noundef nonnull align 8 dereferenceable(16) %exception.i, ptr noundef nonnull @.str.38)
          to label %invoke.cont.i unwind label %lpad.i

invoke.cont.i:                                    ; preds = %if.then.i
  tail call void @__cxa_throw(ptr nonnull %exception.i, ptr nonnull @_ZTI17DeadlyImportError, ptr nonnull @_ZN17DeadlyImportErrorD2Ev) #23
  unreachable

lpad.i:                                           ; preds = %if.then.i
  %5 = landingpad { ptr, i32 }
          cleanup
  tail call void @__cxa_free_exception(ptr %exception.i) #22
  resume { ptr, i32 } %5

_ZN6Assimp12StreamReaderILb0ELb0EE6IncPtrEl.exit: ; preds = %entry
  ret void
}